target datalayout = "e-m:e-p270:32:32-p271:32:32-p272:64:64-i64:64-i128:128-f80:128-n8:16:32:64-S128"
target triple = "x86_64-pc-linux-gnu"

%"struct.faiss::DistanceComputer" = type { ptr }
%"struct.faiss::(anonymous namespace)::FlatHammingDis.28" = type { %"struct.faiss::DistanceComputer", i32, ptr, i64, %"struct.faiss::HammingComputer32" }
%"struct.faiss::HammingComputer32" = type { i64, i64, i64, i64 }

; Function Attrs: mustprogress nounwind uwtable
define linkonce_odr void @_ZN5faiss17HammingComputer323setEPKhi(ptr noundef nonnull align 8 dereferenceable(32) %0, ptr noundef %1, i32 noundef %2) #0 comdat align 2 {
  %4 = alloca ptr, align 8
  %5 = alloca ptr, align 8
  %6 = alloca i32, align 4
  %7 = alloca ptr, align 8
  store ptr %0, ptr %4, align 8
  store ptr %1, ptr %5, align 8
  store i32 %2, ptr %6, align 4
  %8 = load ptr, ptr %4, align 8
  %9 = load ptr, ptr %5, align 8
  store ptr %9, ptr %7, align 8
  %10 = load ptr, ptr %7, align 8
  %11 = getelementptr inbounds i64, ptr %10, i64 0
  %12 = load i64, ptr %11, align 8
  %13 = getelementptr inbounds %"struct.faiss::HammingComputer32", ptr %8, i32 0, i32 0
  store i64 %12, ptr %13, align 8
  %14 = load ptr, ptr %7, align 8
  %15 = getelementptr inbounds i64, ptr %14, i64 1
  %16 = load i64, ptr %15, align 8
  %17 = getelementptr inbounds %"struct.faiss::HammingComputer32", ptr %8, i32 0, i32 1
  store i64 %16, ptr %17, align 8
  %18 = load ptr, ptr %7, align 8
  %19 = getelementptr inbounds i64, ptr %18, i64 2
  %20 = load i64, ptr %19, align 8
  %21 = getelementptr inbounds %"struct.faiss::HammingComputer32", ptr %8, i32 0, i32 2
  store i64 %20, ptr %21, align 8
  %22 = load ptr, ptr %7, align 8
  %23 = getelementptr inbounds i64, ptr %22, i64 3
  %24 = load i64, ptr %23, align 8
  %25 = getelementptr inbounds %"struct.faiss::HammingComputer32", ptr %8, i32 0, i32 3
  store i64 %24, ptr %25, align 8
  ret void
}

; Function Attrs: mustprogress uwtable
define internal void @_ZN5faiss12_GLOBAL__N_114FlatHammingDisINS_17HammingComputer32EE9set_queryEPKf(ptr noundef nonnull align 8 dereferenceable(64) %0, ptr noundef %1) unnamed_addr #1 align 2 {
  %3 = alloca ptr, align 8
  %4 = alloca ptr, align 8
  store ptr %0, ptr %3, align 8
  store ptr %1, ptr %4, align 8
  %5 = load ptr, ptr %3, align 8
  %6 = getelementptr inbounds %"struct.faiss::(anonymous namespace)::FlatHammingDis.28", ptr %5, i32 0, i32 4
  %7 = load ptr, ptr %4, align 8
  %8 = getelementptr inbounds %"struct.faiss::(anonymous namespace)::FlatHammingDis.28", ptr %5, i32 0, i32 1
  %9 = load i32, ptr %8, align 8
  call void @_ZN5faiss17HammingComputer323setEPKhi(ptr noundef nonnull align 8 dereferenceable(32) %6, ptr noundef %7, i32 noundef %9)
  ret void
}